target datalayout = "e-m:e-p270:32:32-p271:32:32-p272:64:64-i64:64-i128:128-f80:128-n8:16:32:64-S128"
target triple = "x86_64-pc-linux-gnu"

@.str.5 = private unnamed_addr constant [22 x i8] c"shift-sampler-binding\00", align 1
@.str.6 = private unnamed_addr constant [22 x i8] c"shift-texture-binding\00", align 1
@.str.7 = private unnamed_addr constant [20 x i8] c"shift-image-binding\00", align 1
@.str.8 = private unnamed_addr constant [18 x i8] c"shift-UBO-binding\00", align 1
@.str.9 = private unnamed_addr constant [19 x i8] c"shift-ssbo-binding\00", align 1
@.str.10 = private unnamed_addr constant [18 x i8] c"shift-uav-binding\00", align 1

; Function Attrs: mustprogress nounwind uwtable
define noundef ptr @_ZN7glslang13TIntermediate15getResourceNameENS_13TResourceTypeE(i32 noundef %0) #0 align 2 {
  %2 = alloca ptr, align 8
  %3 = alloca i32, align 4
  store i32 %0, ptr %3, align 4
  %4 = load i32, ptr %3, align 4
  switch i32 %4, label %11 [
    i32 0, label %5
    i32 1, label %6
    i32 2, label %7
    i32 3, label %8
    i32 4, label %9
    i32 5, label %10
  ]

5:                                                ; preds = %1
  store ptr @.str.5, ptr %2, align 8
  br label %12

6:                                                ; preds = %1
  store ptr @.str.6, ptr %2, align 8
  br label %12

7:                                                ; preds = %1
  store ptr @.str.7, ptr %2, align 8
  br label %12

8:                                                ; preds = %1
  store ptr @.str.8, ptr %2, align 8
  br label %12

9:                                                ; preds = %1
  store ptr @.str.9, ptr %2, align 8
  br label %12

10:                                               ; preds = %1
  store ptr @.str.10, ptr %2, align 8
  br label %12

11:                                               ; preds = %1
  store ptr null, ptr %2, align 8
  br label %12

12:                                               ; preds = %11, %10, %9, %8, %7, %6, %5
  %13 = load ptr, ptr %2, align 8
  ret ptr %13
}